target datalayout = "e-m:e-p270:32:32-p271:32:32-p272:64:64-i64:64-i128:128-f80:128-n8:16:32:64-S128"
target triple = "x86_64-pc-linux-gnu"

@.str.32 = private unnamed_addr constant [33 x i8] c"Quake III Arena Network Protocol\00", align 1
@.str.33 = private unnamed_addr constant [7 x i8] c"QUAKE3\00", align 1
@.str.34 = private unnamed_addr constant [7 x i8] c"quake3\00", align 1
@proto_quake3 = internal global i32 0, align 4
@quake3_handle = internal global ptr null, align 8
@.str.35 = private unnamed_addr constant [15 x i8] c"udp.arena_port\00", align 1
@.str.36 = private unnamed_addr constant [37 x i8] c"Quake III Arena Server UDP Base Port\00", align 1
@.str.37 = private unnamed_addr constant [53 x i8] c"Set the UDP base port for the Quake III Arena Server\00", align 1
@gbl_quake3_server_port = internal global i32 27960, align 4
@.str.38 = private unnamed_addr constant [16 x i8] c"udp.master_port\00", align 1
@.str.39 = private unnamed_addr constant [44 x i8] c"Quake III Arena Master Server UDP Base Port\00", align 1
@.str.40 = private unnamed_addr constant [60 x i8] c"Set the UDP base port for the Quake III Arena Master Server\00", align 1
@gbl_quake3_master_port = internal global i32 27950, align 4

; Function Attrs: null_pointer_is_valid sspstrong uwtable
define hidden void @proto_register_quake3() #0 {
  %1 = alloca ptr, align 8
  call void @llvm.lifetime.start.p0(i64 8, ptr %1) #4
  %2 = call i32 @proto_register_protocol(ptr noundef @.str.32, ptr noundef @.str.33, ptr noundef @.str.34)
  store i32 %2, ptr @proto_quake3, align 4
  %3 = load i32, ptr @proto_quake3, align 4
  call void @proto_register_field_array(i32 noundef %3, ptr noundef @proto_register_quake3.hf, i32 noundef 13)
  call void @proto_register_subtree_array(ptr noundef @proto_register_quake3.ett, i32 noundef 9)
  %4 = load i32, ptr @proto_quake3, align 4
  %5 = call ptr @register_dissector(ptr noundef @.str.34, ptr noundef @dissect_quake3, i32 noundef %4)
  store ptr %5, ptr @quake3_handle, align 8
  %6 = load i32, ptr @proto_quake3, align 4
  %7 = call ptr @prefs_register_protocol(i32 noundef %6, ptr noundef @proto_reg_handoff_quake3)
  store ptr %7, ptr %1, align 8
  %8 = load ptr, ptr %1, align 8
  call void @prefs_register_uint_preference(ptr noundef %8, ptr noundef @.str.35, ptr noundef @.str.36, ptr noundef @.str.37, i32 noundef 10, ptr noundef @gbl_quake3_server_port)
  %9 = load ptr, ptr %1, align 8
  call void @prefs_register_uint_preference(ptr noundef %9, ptr noundef @.str.38, ptr noundef @.str.39, ptr noundef @.str.40, i32 noundef 10, ptr noundef @gbl_quake3_master_port)
  call void @llvm.lifetime.end.p0(i64 8, ptr %1) #4
  ret void
}