; Function Attrs: null_pointer_is_valid sspstrong uwtable
define hidden void @proto_register_quake3() local_unnamed_addr #0 {
  %1 = tail call i32 @proto_register_protocol(ptr noundef nonnull @.str.32, ptr noundef nonnull @.str.33, ptr noundef nonnull @.str.34)
  store i32 %1, ptr @proto_quake3, align 4
  tail call void @proto_register_field_array(i32 noundef %1, ptr noundef nonnull @proto_register_quake3.hf, i32 noundef 13)
  tail call void @proto_register_subtree_array(ptr noundef nonnull @proto_register_quake3.ett, i32 noundef 9)
  %2 = load i32, ptr @proto_quake3, align 4
  %3 = tail call ptr @register_dissector(ptr noundef nonnull @.str.34, ptr noundef nonnull @dissect_quake3, i32 noundef %2)
  store ptr %3, ptr @quake3_handle, align 8
  %4 = load i32, ptr @proto_quake3, align 4
  %5 = tail call ptr @prefs_register_protocol(i32 noundef %4, ptr noundef nonnull @proto_reg_handoff_quake3)
  tail call void @prefs_register_uint_preference(ptr noundef %5, ptr noundef nonnull @.str.35, ptr noundef nonnull @.str.36, ptr noundef nonnull @.str.37, i32 noundef 10, ptr noundef nonnull @gbl_quake3_server_port)
  tail call void @prefs_register_uint_preference(ptr noundef %5, ptr noundef nonnull @.str.38, ptr noundef nonnull @.str.39, ptr noundef nonnull @.str.40, i32 noundef 10, ptr noundef nonnull @gbl_quake3_master_port)
  ret void
}